target datalayout = "e-m:e-p270:32:32-p271:32:32-p272:64:64-i64:64-i128:128-f80:128-n8:16:32:64-S128"
target triple = "x86_64-pc-linux-gnu"

%struct.aofManifest = type { ptr, ptr, ptr, i64, i64, i32 }
%struct.list = type { ptr, ptr, ptr, ptr, ptr, i64 }

; Function Attrs: nounwind uwtable
define dso_local i32 @getBaseAndIncrAppendOnlyFilesNum(ptr noundef %0) #0 {
  %2 = alloca ptr, align 8
  %3 = alloca i32, align 4
  store ptr %0, ptr %2, align 8, !tbaa !5
  call void @llvm.lifetime.start.p0(i64 4, ptr %3) #12
  store i32 0, ptr %3, align 4, !tbaa !22
  %4 = load ptr, ptr %2, align 8, !tbaa !5
  %5 = getelementptr inbounds nuw %struct.aofManifest, ptr %4, i32 0, i32 0
  %6 = load ptr, ptr %5, align 8, !tbaa !33
  %7 = icmp ne ptr %6, null
  br i1 %7, label %8, label %11

8:                                                ; preds = %1
  %9 = load i32, ptr %3, align 4, !tbaa !22
  %10 = add nsw i32 %9, 1
  store i32 %10, ptr %3, align 4, !tbaa !22
  br label %11

11:                                               ; preds = %8, %1
  %12 = load ptr, ptr %2, align 8, !tbaa !5
  %13 = getelementptr inbounds nuw %struct.aofManifest, ptr %12, i32 0, i32 1
  %14 = load ptr, ptr %13, align 8, !tbaa !25
  %15 = icmp ne ptr %14, null
  br i1 %15, label %16, label %26

16:                                               ; preds = %11
  %17 = load ptr, ptr %2, align 8, !tbaa !5
  %18 = getelementptr inbounds nuw %struct.aofManifest, ptr %17, i32 0, i32 1
  %19 = load ptr, ptr %18, align 8, !tbaa !25
  %20 = getelementptr inbounds nuw %struct.list, ptr %19, i32 0, i32 5
  %21 = load i64, ptr %20, align 8, !tbaa !77
  %22 = load i32, ptr %3, align 4, !tbaa !22
  %23 = sext i32 %22 to i64
  %24 = add i64 %23, %21
  %25 = trunc i64 %24 to i32
  store i32 %25, ptr %3, align 4, !tbaa !22
  br label %26

26:                                               ; preds = %16, %11
  %27 = load i32, ptr %3, align 4, !tbaa !22
  call void @llvm.lifetime.end.p0(i64 4, ptr %3) #12
  ret i32 %27
}