; Function Attrs: mustprogress nofree norecurse nosync nounwind willreturn memory(read, inaccessiblemem: none) uwtable
define dso_local i32 @getBaseAndIncrAppendOnlyFilesNum(ptr noundef readonly captures(none) %0) local_unnamed_addr #14 {
  %2 = load ptr, ptr %0, align 8, !tbaa !32
  %.not = icmp ne ptr %2, null
  %spec.select = zext i1 %.not to i32
  %3 = getelementptr inbounds nuw i8, ptr %0, i64 8
  %4 = load ptr, ptr %3, align 8, !tbaa !24
  %.not6 = icmp eq ptr %4, null
  br i1 %.not6, label %10, label %5

5:                                                ; preds = %1
  %6 = getelementptr inbounds nuw i8, ptr %4, i64 40
  %7 = load i64, ptr %6, align 8, !tbaa !73
  %8 = trunc i64 %7 to i32
  %9 = add i32 %8, %spec.select
  br label %10

10:                                               ; preds = %5, %1
  %.1 = phi i32 [ %9, %5 ], [ %spec.select, %1 ]
  ret i32 %.1
}